; Function Attrs: mustprogress nofree norecurse nosync nounwind willreturn memory(read, inaccessiblemem: none) uwtable
define i32 @lv_display_get_offset_y(ptr noundef readonly %0) local_unnamed_addr #6 {
  %2 = icmp eq ptr %0, null
  br i1 %2, label %3, label %.thread

3:                                                ; preds = %1
  %4 = load ptr, ptr getelementptr inbounds nuw (i8, ptr @lv_global, i64 40), align 8, !tbaa !33
  %5 = icmp eq ptr %4, null
  br i1 %5, label %32, label %.thread

.thread:                                          ; preds = %1, %3
  %.016 = phi ptr [ %4, %3 ], [ %0, %1 ]
  %6 = getelementptr inbounds nuw i8, ptr %.016, i64 888
  %7 = load i8, ptr %6, align 8
  %8 = and i8 %7, 7
  switch i8 %8, label %29 [
    i8 1, label %9
    i8 2, label %.thread.i
    i8 3, label %.thread.i11
  ]

9:                                                ; preds = %.thread
  %10 = getelementptr inbounds nuw i8, ptr %.016, i64 16
  %11 = load i32, ptr %10, align 8, !tbaa !19
  br label %32

.thread.i:                                        ; preds = %.thread
  %12 = getelementptr inbounds nuw i8, ptr %.016, i64 12
  %13 = load i32, ptr %12, align 4, !tbaa !18
  %14 = icmp sgt i32 %13, 0
  br i1 %14, label %lv_display_get_physical_vertical_resolution.exit, label %15

15:                                               ; preds = %.thread.i
  %16 = getelementptr inbounds nuw i8, ptr %.016, i64 4
  %17 = load i32, ptr %16, align 4, !tbaa !16
  br label %lv_display_get_physical_vertical_resolution.exit

lv_display_get_physical_vertical_resolution.exit: ; preds = %.thread.i, %15
  %.09.i = phi i32 [ %17, %15 ], [ %13, %.thread.i ]
  %18 = getelementptr inbounds nuw i8, ptr %.016, i64 20
  %19 = load i32, ptr %18, align 4, !tbaa !20
  %20 = sub nsw i32 %.09.i, %19
  br label %32

.thread.i11:                                      ; preds = %.thread
  %21 = getelementptr inbounds nuw i8, ptr %.016, i64 8
  %22 = load i32, ptr %21, align 8, !tbaa !17
  %23 = icmp sgt i32 %22, 0
  br i1 %23, label %lv_display_get_physical_vertical_resolution.exit14, label %24

24:                                               ; preds = %.thread.i11
  %25 = load i32, ptr %.016, align 8, !tbaa !3
  br label %lv_display_get_physical_vertical_resolution.exit14

lv_display_get_physical_vertical_resolution.exit14: ; preds = %.thread.i11, %24
  %.09.i13 = phi i32 [ %25, %24 ], [ %22, %.thread.i11 ]
  %26 = getelementptr inbounds nuw i8, ptr %.016, i64 16
  %27 = load i32, ptr %26, align 8, !tbaa !19
  %28 = sub nsw i32 %.09.i13, %27
  br label %32

29:                                               ; preds = %.thread
  %30 = getelementptr inbounds nuw i8, ptr %.016, i64 20
  %31 = load i32, ptr %30, align 4, !tbaa !20
  br label %32

32:                                               ; preds = %3, %29, %lv_display_get_physical_vertical_resolution.exit14, %lv_display_get_physical_vertical_resolution.exit, %9
  %.09 = phi i32 [ %31, %29 ], [ %28, %lv_display_get_physical_vertical_resolution.exit14 ], [ %20, %lv_display_get_physical_vertical_resolution.exit ], [ %11, %9 ], [ 0, %3 ]
  ret i32 %.09
}